target datalayout = "e-m:e-p270:32:32-p271:32:32-p272:64:64-i64:64-i128:128-f80:128-n8:16:32:64-S128"
target triple = "x86_64-pc-linux-gnu"

%struct.nameData = type { [64 x i8] }
%struct.int2vector = type { i32, i32, i32, i32, i32, i32, [0 x i16] }
%struct.ScanKeyData = type { i32, i16, i16, i32, i32, %struct.FmgrInfo, i64 }
%struct.FmgrInfo = type { ptr, i32, i16, i8, i8, i8, ptr, ptr, ptr }
%struct.FormData_pg_trigger = type { i32, i32, i32, %struct.nameData, i32, i16, i8, i8, i32, i32, i32, i8, i8, i16, %struct.int2vector }
%struct.HeapTupleData = type { i32, %struct.ItemPointerData, i32, ptr }
%struct.ItemPointerData = type { %struct.BlockIdData, i16 }
%struct.BlockIdData = type { i16, i16 }
%struct.HeapTupleHeaderData = type { %union.anon, %struct.ItemPointerData, i16, i16, i8, [0 x i8] }
%union.anon = type { %struct.HeapTupleFields }
%struct.HeapTupleFields = type { i32, i32, %union.anon.0 }
%union.anon.0 = type { i32 }

@.str.2 = private unnamed_addr constant [12 x i8] c"tablecmds.c\00", align 1
@.str.376 = private unnamed_addr constant [69 x i8] c"could not find ON INSERT check triggers of foreign key constraint %u\00", align 1
@__func__.GetForeignKeyCheckTriggers = private unnamed_addr constant [27 x i8] c"GetForeignKeyCheckTriggers\00", align 1
@.str.377 = private unnamed_addr constant [69 x i8] c"could not find ON UPDATE check triggers of foreign key constraint %u\00", align 1

; Function Attrs: inlinehint nounwind uwtable
define internal ptr @GETSTRUCT(ptr noundef %0) #6 {
  %2 = alloca ptr, align 8
  store ptr %0, ptr %2, align 8
  %3 = load ptr, ptr %2, align 8
  %4 = getelementptr inbounds nuw %struct.HeapTupleData, ptr %3, i32 0, i32 3
  %5 = load ptr, ptr %4, align 8
  %6 = load ptr, ptr %2, align 8
  %7 = getelementptr inbounds nuw %struct.HeapTupleData, ptr %6, i32 0, i32 3
  %8 = load ptr, ptr %7, align 8
  %9 = getelementptr inbounds nuw %struct.HeapTupleHeaderData, ptr %8, i32 0, i32 4
  %10 = load i8, ptr %9, align 2
  %11 = zext i8 %10 to i32
  %12 = sext i32 %11 to i64
  %13 = getelementptr inbounds i8, ptr %5, i64 %12
  ret ptr %13
}

; Function Attrs: inlinehint nounwind uwtable
define internal i64 @ObjectIdGetDatum(i32 noundef %0) #6 {
  %2 = alloca i32, align 4
  store i32 %0, ptr %2, align 4
  %3 = load i32, ptr %2, align 4
  %4 = zext i32 %3 to i64
  ret i64 %4
}

; Function Attrs: nounwind uwtable
define internal void @GetForeignKeyCheckTriggers(ptr noundef %0, i32 noundef %1, i32 noundef %2, i32 noundef %3, ptr noundef %4, ptr noundef %5) #0 {
  %7 = alloca ptr, align 8
  %8 = alloca i32, align 4
  %9 = alloca i32, align 4
  %10 = alloca i32, align 4
  %11 = alloca ptr, align 8
  %12 = alloca ptr, align 8
  %13 = alloca %struct.ScanKeyData, align 8
  %14 = alloca ptr, align 8
  %15 = alloca ptr, align 8
  %16 = alloca ptr, align 8
  %17 = alloca i32, align 4
  store ptr %0, ptr %7, align 8
  store i32 %1, ptr %8, align 4
  store i32 %2, ptr %9, align 4
  store i32 %3, ptr %10, align 4
  store ptr %4, ptr %11, align 8
  store ptr %5, ptr %12, align 8
  call void @llvm.lifetime.start.p0(i64 72, ptr %13) #12
  call void @llvm.lifetime.start.p0(i64 8, ptr %14) #12
  call void @llvm.lifetime.start.p0(i64 8, ptr %15) #12
  %18 = load ptr, ptr %12, align 8
  store i32 0, ptr %18, align 4
  %19 = load ptr, ptr %11, align 8
  store i32 0, ptr %19, align 4
  %20 = load i32, ptr %8, align 4
  %21 = call i64 @ObjectIdGetDatum(i32 noundef %20)
  call void @ScanKeyInit(ptr noundef %13, i16 noundef signext 11, i16 noundef zeroext 3, i32 noundef 184, i64 noundef %21)
  %22 = load ptr, ptr %7, align 8
  %23 = call ptr @systable_beginscan(ptr noundef %22, i32 noundef 2699, i1 noundef zeroext true, ptr noundef null, i32 noundef 1, ptr noundef %13)
  store ptr %23, ptr %14, align 8
  br label %24

24:                                               ; preds = %88, %86, %6
  %25 = load ptr, ptr %14, align 8
  %26 = call ptr @systable_getnext(ptr noundef %25)
  store ptr %26, ptr %15, align 8
  %27 = icmp ne ptr %26, null
  br i1 %27, label %28, label %89

28:                                               ; preds = %24
  call void @llvm.lifetime.start.p0(i64 8, ptr %16) #12
  %29 = load ptr, ptr %15, align 8
  %30 = call ptr @GETSTRUCT(ptr noundef %29)
  store ptr %30, ptr %16, align 8
  %31 = load ptr, ptr %16, align 8
  %32 = getelementptr inbounds nuw %struct.FormData_pg_trigger, ptr %31, i32 0, i32 8
  %33 = load i32, ptr %32, align 4
  %34 = load i32, ptr %9, align 4
  %35 = icmp ne i32 %33, %34
  br i1 %35, label %36, label %37

36:                                               ; preds = %28
  store i32 2, ptr %17, align 4
  br label %86, !llvm.loop !154

37:                                               ; preds = %28
  %38 = load ptr, ptr %16, align 8
  %39 = getelementptr inbounds nuw %struct.FormData_pg_trigger, ptr %38, i32 0, i32 1
  %40 = load i32, ptr %39, align 4
  %41 = load i32, ptr %10, align 4
  %42 = icmp ne i32 %40, %41
  br i1 %42, label %43, label %44

43:                                               ; preds = %37
  store i32 2, ptr %17, align 4
  br label %86, !llvm.loop !154

44:                                               ; preds = %37
  %45 = load ptr, ptr %16, align 8
  %46 = getelementptr inbounds nuw %struct.FormData_pg_trigger, ptr %45, i32 0, i32 4
  %47 = load i32, ptr %46, align 4
  %48 = call i32 @RI_FKey_trigger_type(i32 noundef %47)
  %49 = icmp ne i32 %48, 2
  br i1 %49, label %50, label %51

50:                                               ; preds = %44
  store i32 2, ptr %17, align 4
  br label %86, !llvm.loop !154

51:                                               ; preds = %44
  %52 = load ptr, ptr %16, align 8
  %53 = getelementptr inbounds nuw %struct.FormData_pg_trigger, ptr %52, i32 0, i32 5
  %54 = load i16, ptr %53, align 4
  %55 = sext i16 %54 to i32
  %56 = and i32 %55, 4
  %57 = icmp ne i32 %56, 0
  br i1 %57, label %58, label %63

58:                                               ; preds = %51
  %59 = load ptr, ptr %16, align 8
  %60 = getelementptr inbounds nuw %struct.FormData_pg_trigger, ptr %59, i32 0, i32 0
  %61 = load i32, ptr %60, align 4
  %62 = load ptr, ptr %11, align 8
  store i32 %61, ptr %62, align 4
  br label %76

63:                                               ; preds = %51
  %64 = load ptr, ptr %16, align 8
  %65 = getelementptr inbounds nuw %struct.FormData_pg_trigger, ptr %64, i32 0, i32 5
  %66 = load i16, ptr %65, align 4
  %67 = sext i16 %66 to i32
  %68 = and i32 %67, 16
  %69 = icmp ne i32 %68, 0
  br i1 %69, label %70, label %75

70:                                               ; preds = %63
  %71 = load ptr, ptr %16, align 8
  %72 = getelementptr inbounds nuw %struct.FormData_pg_trigger, ptr %71, i32 0, i32 0
  %73 = load i32, ptr %72, align 4
  %74 = load ptr, ptr %12, align 8
  store i32 %73, ptr %74, align 4
  br label %75

75:                                               ; preds = %70, %63
  br label %76

76:                                               ; preds = %75, %58
  %77 = load ptr, ptr %11, align 8
  %78 = load i32, ptr %77, align 4
  %79 = icmp ne i32 %78, 0
  br i1 %79, label %80, label %85

80:                                               ; preds = %76
  %81 = load ptr, ptr %12, align 8
  %82 = load i32, ptr %81, align 4
  %83 = icmp ne i32 %82, 0
  br i1 %83, label %84, label %85

84:                                               ; preds = %80
  store i32 3, ptr %17, align 4
  br label %86

85:                                               ; preds = %80, %76
  store i32 0, ptr %17, align 4
  br label %86

86:                                               ; preds = %85, %84, %50, %43, %36
  call void @llvm.lifetime.end.p0(i64 8, ptr %16) #12
  %87 = load i32, ptr %17, align 4
  switch i32 %87, label %123 [
    i32 0, label %88
    i32 2, label %24
    i32 3, label %89
  ]

88:                                               ; preds = %86
  br label %24, !llvm.loop !154

89:                                               ; preds = %86, %24
  %90 = load ptr, ptr %11, align 8
  %91 = load i32, ptr %90, align 4
  %92 = icmp ne i32 %91, 0
  br i1 %92, label %105, label %93

93:                                               ; preds = %89
  br label %94

94:                                               ; preds = %93
  br i1 true, label %95, label %97

95:                                               ; preds = %94
  %96 = call zeroext i1 @errstart_cold(i32 noundef 21, ptr noundef null) #13
  br i1 %96, label %99, label %102

97:                                               ; preds = %94
  %98 = call zeroext i1 @errstart(i32 noundef 21, ptr noundef null)
  br i1 %98, label %99, label %102

99:                                               ; preds = %97, %95
  %100 = load i32, ptr %8, align 4
  %101 = call i32 (ptr, ...) @errmsg_internal(ptr noundef @.str.376, i32 noundef %100)
  call void @errfinish(ptr noundef @.str.2, i32 noundef 11785, ptr noundef @__func__.GetForeignKeyCheckTriggers)
  br label %102

102:                                              ; preds = %99, %97, %95
  unreachable

103:                                              ; No predecessors!
  br label %104

104:                                              ; preds = %103
  br label %105

105:                                              ; preds = %104, %89
  %106 = load ptr, ptr %12, align 8
  %107 = load i32, ptr %106, align 4
  %108 = icmp ne i32 %107, 0
  br i1 %108, label %121, label %109

109:                                              ; preds = %105
  br label %110

110:                                              ; preds = %109
  br i1 true, label %111, label %113

111:                                              ; preds = %110
  %112 = call zeroext i1 @errstart_cold(i32 noundef 21, ptr noundef null) #13
  br i1 %112, label %115, label %118

113:                                              ; preds = %110
  %114 = call zeroext i1 @errstart(i32 noundef 21, ptr noundef null)
  br i1 %114, label %115, label %118

115:                                              ; preds = %113, %111
  %116 = load i32, ptr %8, align 4
  %117 = call i32 (ptr, ...) @errmsg_internal(ptr noundef @.str.377, i32 noundef %116)
  call void @errfinish(ptr noundef @.str.2, i32 noundef 11788, ptr noundef @__func__.GetForeignKeyCheckTriggers)
  br label %118

118:                                              ; preds = %115, %113, %111
  unreachable

119:                                              ; No predecessors!
  br label %120

120:                                              ; preds = %119
  br label %121

121:                                              ; preds = %120, %105
  %122 = load ptr, ptr %14, align 8
  call void @systable_endscan(ptr noundef %122)
  call void @llvm.lifetime.end.p0(i64 8, ptr %15) #12
  call void @llvm.lifetime.end.p0(i64 8, ptr %14) #12
  call void @llvm.lifetime.end.p0(i64 72, ptr %13) #12
  ret void

123:                                              ; preds = %86
  unreachable
}