; Function Attrs: nounwind uwtable
define internal fastcc void @GetForeignKeyCheckTriggers(ptr noundef %0, i32 noundef %1, i32 noundef %2, i32 noundef %3, ptr noundef nonnull captures(none) initializes((0, 4)) %4, ptr noundef nonnull captures(none) initializes((0, 4)) %5) unnamed_addr #0 {
  %7 = alloca %struct.ScanKeyData, align 8
  call void @llvm.lifetime.start.p0(i64 72, ptr nonnull %7) #15
  store i32 0, ptr %5, align 4
  store i32 0, ptr %4, align 4
  %8 = zext i32 %1 to i64
  call void @ScanKeyInit(ptr noundef nonnull %7, i16 noundef signext 11, i16 noundef zeroext 3, i32 noundef 184, i64 noundef %8) #15
  %9 = call ptr @systable_beginscan(ptr noundef %0, i32 noundef 2699, i1 noundef zeroext true, ptr noundef null, i32 noundef 1, ptr noundef nonnull %7) #15
  %10 = call ptr @systable_getnext(ptr noundef %9) #15
  %.not37 = icmp eq ptr %10, null
  br i1 %.not37, label %.thread, label %.lr.ph

.lr.ph:                                           ; preds = %6, %40
  %11 = phi ptr [ %41, %40 ], [ %10, %6 ]
  %12 = getelementptr i8, ptr %11, i64 16
  %.val = load ptr, ptr %12, align 8
  %13 = getelementptr inbounds nuw i8, ptr %.val, i64 22
  %14 = load i8, ptr %13, align 2
  %15 = zext i8 %14 to i64
  %16 = getelementptr inbounds nuw i8, ptr %.val, i64 %15
  %17 = getelementptr inbounds nuw i8, ptr %16, i64 84
  %18 = load i32, ptr %17, align 4
  %.not25 = icmp eq i32 %18, %2
  br i1 %.not25, label %19, label %40, !llvm.loop !93

19:                                               ; preds = %.lr.ph
  %20 = getelementptr inbounds nuw i8, ptr %16, i64 4
  %21 = load i32, ptr %20, align 4
  %.not26 = icmp eq i32 %21, %3
  br i1 %.not26, label %22, label %40, !llvm.loop !93

22:                                               ; preds = %19
  %23 = getelementptr inbounds nuw i8, ptr %16, i64 76
  %24 = load i32, ptr %23, align 4
  %25 = call i32 @RI_FKey_trigger_type(i32 noundef %24) #15
  %.not27 = icmp eq i32 %25, 2
  br i1 %.not27, label %26, label %40, !llvm.loop !93

26:                                               ; preds = %22
  %27 = getelementptr inbounds nuw i8, ptr %16, i64 80
  %28 = load i16, ptr %27, align 4
  %29 = and i16 %28, 4
  %.not28 = icmp eq i16 %29, 0
  br i1 %.not28, label %32, label %30

30:                                               ; preds = %26
  %31 = load i32, ptr %16, align 4
  store i32 %31, ptr %4, align 4
  br label %36

32:                                               ; preds = %26
  %33 = and i16 %28, 16
  %.not29 = icmp eq i16 %33, 0
  br i1 %.not29, label %thread-pre-split, label %34

34:                                               ; preds = %32
  %35 = load i32, ptr %16, align 4
  store i32 %35, ptr %5, align 4
  br label %thread-pre-split

thread-pre-split:                                 ; preds = %34, %32
  %.pr = load i32, ptr %4, align 4
  br label %36

36:                                               ; preds = %thread-pre-split, %30
  %37 = phi i32 [ %.pr, %thread-pre-split ], [ %31, %30 ]
  %.not30 = icmp eq i32 %37, 0
  br i1 %.not30, label %40, label %38

38:                                               ; preds = %36
  %39 = load i32, ptr %5, align 4
  %.not31 = icmp eq i32 %39, 0
  br i1 %.not31, label %40, label %.thread

40:                                               ; preds = %36, %38, %22, %19, %.lr.ph
  %41 = call ptr @systable_getnext(ptr noundef %9) #15
  %.not = icmp eq ptr %41, null
  br i1 %.not, label %.thread, label %.lr.ph

.thread:                                          ; preds = %40, %38, %6
  %42 = load i32, ptr %4, align 4
  %.not32 = icmp eq i32 %42, 0
  br i1 %.not32, label %43, label %46

43:                                               ; preds = %.thread
  %44 = call zeroext i1 @errstart_cold(i32 noundef 21, ptr noundef null) #16
  call void @llvm.assume(i1 %44)
  %45 = call i32 (ptr, ...) @errmsg_internal(ptr noundef nonnull @.str.376, i32 noundef %1) #15
  call void @errfinish(ptr noundef nonnull @.str.2, i32 noundef 11785, ptr noundef nonnull @__func__.GetForeignKeyCheckTriggers) #15
  unreachable

46:                                               ; preds = %.thread
  %47 = load i32, ptr %5, align 4
  %.not33 = icmp eq i32 %47, 0
  br i1 %.not33, label %48, label %51

48:                                               ; preds = %46
  %49 = call zeroext i1 @errstart_cold(i32 noundef 21, ptr noundef null) #16
  call void @llvm.assume(i1 %49)
  %50 = call i32 (ptr, ...) @errmsg_internal(ptr noundef nonnull @.str.377, i32 noundef %1) #15
  call void @errfinish(ptr noundef nonnull @.str.2, i32 noundef 11788, ptr noundef nonnull @__func__.GetForeignKeyCheckTriggers) #15
  unreachable

51:                                               ; preds = %46
  call void @systable_endscan(ptr noundef %9) #15
  call void @llvm.lifetime.end.p0(i64 72, ptr nonnull %7) #15
  ret void
}